; Function Attrs: inlinehint mustprogress nofree norecurse nosync nounwind willreturn memory(read, argmem: readwrite, inaccessiblemem: none) uwtable
define internal fastcc void @bits_skip_le(ptr noundef captures(none) %0, i32 noundef range(i32 1, 0) %1) unnamed_addr #7 {
  %3 = getelementptr inbounds nuw i8, ptr %0, i64 32
  %4 = load i32, ptr %3, align 8, !tbaa !44
  %5 = icmp ult i32 %1, %4
  br i1 %5, label %6, label %11

6:                                                ; preds = %2
  %7 = load i64, ptr %0, align 8, !tbaa !47
  %8 = zext nneg i32 %1 to i64
  %9 = lshr i64 %7, %8
  store i64 %9, ptr %0, align 8, !tbaa !47
  %10 = sub nuw i32 %4, %1
  br label %.sink.split

11:                                               ; preds = %2
  %12 = sub nuw i32 %1, %4
  store i64 0, ptr %0, align 8, !tbaa !47
  store i32 0, ptr %3, align 8, !tbaa !44
  %13 = icmp ugt i32 %12, 63
  br i1 %13, label %14, label %._crit_edge

._crit_edge:                                      ; preds = %11
  %.phi.trans.insert = getelementptr inbounds nuw i8, ptr %0, i64 24
  %.pre = load ptr, ptr %.phi.trans.insert, align 8, !tbaa !43
  br label %21

14:                                               ; preds = %11
  %15 = lshr i32 %12, 3
  %16 = and i32 %12, 7
  %17 = getelementptr inbounds nuw i8, ptr %0, i64 24
  %18 = load ptr, ptr %17, align 8, !tbaa !43
  %19 = zext nneg i32 %15 to i64
  %20 = getelementptr inbounds nuw i8, ptr %18, i64 %19
  store ptr %20, ptr %17, align 8, !tbaa !43
  br label %21

21:                                               ; preds = %._crit_edge, %14
  %22 = phi ptr [ %20, %14 ], [ %.pre, %._crit_edge ]
  %.0 = phi i32 [ %16, %14 ], [ %12, %._crit_edge ]
  %23 = getelementptr inbounds nuw i8, ptr %0, i64 16
  %24 = load ptr, ptr %23, align 8, !tbaa !45
  %.not.i = icmp ult ptr %22, %24
  br i1 %.not.i, label %25, label %bits_priv_refill_64_le.exit

25:                                               ; preds = %21
  %26 = getelementptr inbounds nuw i8, ptr %0, i64 24
  %27 = load i64, ptr %22, align 1, !tbaa !48
  store i64 %27, ptr %0, align 8, !tbaa !47
  %28 = getelementptr inbounds nuw i8, ptr %22, i64 8
  store ptr %28, ptr %26, align 8, !tbaa !43
  store i32 64, ptr %3, align 8, !tbaa !44
  br label %bits_priv_refill_64_le.exit

bits_priv_refill_64_le.exit:                      ; preds = %21, %25
  %29 = phi i32 [ 0, %21 ], [ 64, %25 ]
  %30 = phi i64 [ 0, %21 ], [ %27, %25 ]
  %.not = icmp eq i32 %.0, 0
  br i1 %.not, label %35, label %31

31:                                               ; preds = %bits_priv_refill_64_le.exit
  %32 = zext nneg i32 %.0 to i64
  %33 = lshr i64 %30, %32
  store i64 %33, ptr %0, align 8, !tbaa !47
  %34 = sub nsw i32 %29, %.0
  br label %.sink.split

.sink.split:                                      ; preds = %6, %31
  %.sink = phi i32 [ %34, %31 ], [ %10, %6 ]
  store i32 %.sink, ptr %3, align 8, !tbaa !44
  br label %35

35:                                               ; preds = %.sink.split, %bits_priv_refill_64_le.exit
  ret void
}